target datalayout = "e-m:e-p270:32:32-p271:32:32-p272:64:64-i64:64-i128:128-f80:128-n8:16:32:64-S128"
target triple = "x86_64-pc-linux-gnu"

%struct.dt_import_metadata_t = type { ptr, ptr, ptr, ptr, ptr }

@.str.31 = private unnamed_addr constant [5 x i8] c"text\00", align 1
@.str.32 = private unnamed_addr constant [10 x i8] c"ellipsize\00", align 1

; Function Attrs: nounwind uwtable
define internal ptr @_set_up_combobox(ptr noundef %0, i32 noundef %1, ptr noundef %2) #0 {
  %4 = alloca ptr, align 8
  %5 = alloca i32, align 4
  %6 = alloca ptr, align 8
  %7 = alloca ptr, align 8
  %8 = alloca ptr, align 8
  store ptr %0, ptr %4, align 8, !tbaa !86
  store i32 %1, ptr %5, align 4, !tbaa !61
  store ptr %2, ptr %6, align 8, !tbaa !6
  call void @llvm.lifetime.start.p0(i64 8, ptr %7) #7
  %9 = load ptr, ptr %4, align 8, !tbaa !86
  %10 = call i64 @gtk_tree_model_get_type() #8
  %11 = call ptr @g_type_check_instance_cast(ptr noundef %9, i64 noundef %10)
  %12 = call ptr @gtk_combo_box_new_with_model(ptr noundef %11)
  store ptr %12, ptr %7, align 8, !tbaa !11
  %13 = load ptr, ptr %7, align 8, !tbaa !11
  call void @gtk_widget_set_visible(ptr noundef %13, i32 noundef 1)
  %14 = load ptr, ptr %7, align 8, !tbaa !11
  call void @gtk_widget_set_hexpand(ptr noundef %14, i32 noundef 1)
  call void @llvm.lifetime.start.p0(i64 8, ptr %8) #7
  %15 = call ptr @gtk_cell_renderer_text_new()
  store ptr %15, ptr %8, align 8, !tbaa !87
  %16 = load ptr, ptr %7, align 8, !tbaa !11
  %17 = call i64 @gtk_cell_layout_get_type() #8
  %18 = call ptr @g_type_check_instance_cast(ptr noundef %16, i64 noundef %17)
  %19 = load ptr, ptr %8, align 8, !tbaa !87
  call void @gtk_cell_layout_pack_start(ptr noundef %18, ptr noundef %19, i32 noundef 1)
  %20 = load ptr, ptr %7, align 8, !tbaa !11
  %21 = call i64 @gtk_cell_layout_get_type() #8
  %22 = call ptr @g_type_check_instance_cast(ptr noundef %20, i64 noundef %21)
  %23 = load ptr, ptr %8, align 8, !tbaa !87
  call void (ptr, ptr, ...) @gtk_cell_layout_set_attributes(ptr noundef %22, ptr noundef %23, ptr noundef @.str.31, i32 noundef 0, ptr noundef null)
  %24 = load ptr, ptr %8, align 8, !tbaa !87
  %25 = call ptr @g_type_check_instance_cast(ptr noundef %24, i64 noundef 80)
  call void (ptr, ptr, ...) @g_object_set(ptr noundef %25, ptr noundef @.str.32, i32 noundef 3, ptr noundef null)
  %26 = load ptr, ptr %6, align 8, !tbaa !6
  %27 = getelementptr inbounds nuw %struct.dt_import_metadata_t, ptr %26, i32 0, i32 2
  %28 = load ptr, ptr %27, align 8, !tbaa !13
  %29 = call i64 @gtk_grid_get_type() #8
  %30 = call ptr @g_type_check_instance_cast(ptr noundef %28, i64 noundef %29)
  %31 = load ptr, ptr %7, align 8, !tbaa !11
  %32 = load i32, ptr %5, align 4, !tbaa !61
  call void @gtk_grid_attach(ptr noundef %30, ptr noundef %31, i32 noundef 1, i32 noundef %32, i32 noundef 1, i32 noundef 1)
  %33 = load ptr, ptr %4, align 8, !tbaa !86
  call void @g_object_unref(ptr noundef %33)
  %34 = load ptr, ptr %7, align 8, !tbaa !11
  call void @llvm.lifetime.end.p0(i64 8, ptr %8) #7
  call void @llvm.lifetime.end.p0(i64 8, ptr %7) #7
  ret ptr %34
}