; Function Attrs: nounwind uwtable
define internal fastcc noundef ptr @_set_up_combobox(ptr noundef %0, i32 noundef range(i32 0, 11) %1, ptr noundef readonly captures(none) %2) unnamed_addr #0 {
  %4 = tail call i64 @gtk_tree_model_get_type() #11
  %5 = tail call ptr @g_type_check_instance_cast(ptr noundef %0, i64 noundef %4) #10
  %6 = tail call ptr @gtk_combo_box_new_with_model(ptr noundef %5) #10
  tail call void @gtk_widget_set_visible(ptr noundef %6, i32 noundef 1) #10
  tail call void @gtk_widget_set_hexpand(ptr noundef %6, i32 noundef 1) #10
  %7 = tail call ptr @gtk_cell_renderer_text_new() #10
  %8 = tail call i64 @gtk_cell_layout_get_type() #11
  %9 = tail call ptr @g_type_check_instance_cast(ptr noundef %6, i64 noundef %8) #10
  tail call void @gtk_cell_layout_pack_start(ptr noundef %9, ptr noundef %7, i32 noundef 1) #10
  %10 = tail call ptr @g_type_check_instance_cast(ptr noundef %6, i64 noundef %8) #10
  tail call void (ptr, ptr, ...) @gtk_cell_layout_set_attributes(ptr noundef %10, ptr noundef %7, ptr noundef nonnull @.str.31, i32 noundef 0, ptr noundef null) #10
  %11 = tail call ptr @g_type_check_instance_cast(ptr noundef %7, i64 noundef 80) #10
  tail call void (ptr, ptr, ...) @g_object_set(ptr noundef %11, ptr noundef nonnull @.str.32, i32 noundef 3, ptr noundef null) #10
  %12 = getelementptr inbounds nuw i8, ptr %2, i64 16
  %13 = load ptr, ptr %12, align 8, !tbaa !6
  %14 = tail call i64 @gtk_grid_get_type() #11
  %15 = tail call ptr @g_type_check_instance_cast(ptr noundef %13, i64 noundef %14) #10
  tail call void @gtk_grid_attach(ptr noundef %15, ptr noundef %6, i32 noundef 1, i32 noundef %1, i32 noundef 1, i32 noundef 1) #10
  tail call void @g_object_unref(ptr noundef %0) #10
  ret ptr %6
}